target datalayout = "e-m:e-p270:32:32-p271:32:32-p272:64:64-i64:64-i128:128-f80:128-n8:16:32:64-S128"
target triple = "x86_64-pc-linux-gnu"

; Function Attrs: nounwind uwtable
define i32 @memCompare(ptr noundef %0, ptr noundef %1, i32 noundef %2) #0 {
  %4 = alloca i32, align 4
  %5 = alloca ptr, align 8
  %6 = alloca ptr, align 8
  %7 = alloca i32, align 4
  %8 = alloca i32, align 4
  %9 = alloca i32, align 4
  store ptr %0, ptr %5, align 8, !tbaa !3
  store ptr %1, ptr %6, align 8, !tbaa !3
  store i32 %2, ptr %7, align 4, !tbaa !8
  call void @llvm.lifetime.start.p0(i64 4, ptr %8) #7
  %10 = load i32, ptr %7, align 4, !tbaa !8
  %11 = call i32 @Kit_TruthWordNum_64bit(i32 noundef %10)
  %12 = sub nsw i32 %11, 1
  store i32 %12, ptr %8, align 4, !tbaa !8
  br label %13

13:                                               ; preds = %43, %3
  %14 = load i32, ptr %8, align 4, !tbaa !8
  %15 = icmp sge i32 %14, 0
  br i1 %15, label %16, label %46

16:                                               ; preds = %13
  %17 = load ptr, ptr %5, align 8, !tbaa !3
  %18 = load i32, ptr %8, align 4, !tbaa !8
  %19 = sext i32 %18 to i64
  %20 = getelementptr inbounds i64, ptr %17, i64 %19
  %21 = load i64, ptr %20, align 8, !tbaa !10
  %22 = load ptr, ptr %6, align 8, !tbaa !3
  %23 = load i32, ptr %8, align 4, !tbaa !8
  %24 = sext i32 %23 to i64
  %25 = getelementptr inbounds i64, ptr %22, i64 %24
  %26 = load i64, ptr %25, align 8, !tbaa !10
  %27 = icmp eq i64 %21, %26
  br i1 %27, label %28, label %29

28:                                               ; preds = %16
  br label %43

29:                                               ; preds = %16
  %30 = load ptr, ptr %5, align 8, !tbaa !3
  %31 = load i32, ptr %8, align 4, !tbaa !8
  %32 = sext i32 %31 to i64
  %33 = getelementptr inbounds i64, ptr %30, i64 %32
  %34 = load i64, ptr %33, align 8, !tbaa !10
  %35 = load ptr, ptr %6, align 8, !tbaa !3
  %36 = load i32, ptr %8, align 4, !tbaa !8
  %37 = sext i32 %36 to i64
  %38 = getelementptr inbounds i64, ptr %35, i64 %37
  %39 = load i64, ptr %38, align 8, !tbaa !10
  %40 = icmp ugt i64 %34, %39
  br i1 %40, label %41, label %42

41:                                               ; preds = %29
  store i32 1, ptr %4, align 4
  store i32 1, ptr %9, align 4
  br label %47

42:                                               ; preds = %29
  store i32 -1, ptr %4, align 4
  store i32 1, ptr %9, align 4
  br label %47

43:                                               ; preds = %28
  %44 = load i32, ptr %8, align 4, !tbaa !8
  %45 = add nsw i32 %44, -1
  store i32 %45, ptr %8, align 4, !tbaa !8
  br label %13, !llvm.loop !12

46:                                               ; preds = %13
  store i32 0, ptr %4, align 4
  store i32 1, ptr %9, align 4
  br label %47

47:                                               ; preds = %46, %42, %41
  call void @llvm.lifetime.end.p0(i64 4, ptr %8) #7
  %48 = load i32, ptr %4, align 4
  ret i32 %48
}

; Function Attrs: nounwind uwtable
define i32 @compareWords3(ptr noundef %0, ptr noundef %1) #0 {
  %3 = alloca ptr, align 8
  %4 = alloca ptr, align 8
  store ptr %0, ptr %3, align 8, !tbaa !14
  store ptr %1, ptr %4, align 8, !tbaa !14
  %5 = load ptr, ptr %3, align 8, !tbaa !14
  %6 = load ptr, ptr %5, align 8, !tbaa !3
  %7 = load ptr, ptr %4, align 8, !tbaa !14
  %8 = load ptr, ptr %7, align 8, !tbaa !3
  %9 = call i32 @memCompare(ptr noundef %6, ptr noundef %8, i32 noundef 16)
  ret i32 %9
}