; Function Attrs: nounwind uwtable
define range(i32 -1, 2) i32 @compareWords3(ptr noundef readonly captures(none) %0, ptr noundef readonly captures(none) %1) #0 {
  %3 = load ptr, ptr %0, align 8, !tbaa !15
  %4 = load ptr, ptr %1, align 8, !tbaa !15
  %5 = tail call i32 @Kit_TruthWordNum_64bit(i32 noundef 16) #19
  %6 = zext i32 %5 to i64
  br label %7

7:                                                ; preds = %10, %2
  %indvars.iv.i = phi i64 [ %11, %10 ], [ %6, %2 ]
  %8 = trunc nuw i64 %indvars.iv.i to i32
  %9 = icmp sgt i32 %8, 0
  br i1 %9, label %10, label %memCompare.exit

10:                                               ; preds = %7
  %11 = add nsw i64 %indvars.iv.i, -1
  %12 = getelementptr inbounds nuw i64, ptr %3, i64 %11
  %13 = load i64, ptr %12, align 8, !tbaa !3
  %14 = getelementptr inbounds nuw i64, ptr %4, i64 %11
  %15 = load i64, ptr %14, align 8, !tbaa !3
  %16 = icmp eq i64 %13, %15
  br i1 %16, label %7, label %17, !llvm.loop !7

17:                                               ; preds = %10
  %18 = icmp ugt i64 %13, %15
  %..i = select i1 %18, i32 1, i32 -1
  br label %memCompare.exit

memCompare.exit:                                  ; preds = %7, %17
  %.011.i = phi i32 [ %..i, %17 ], [ 0, %7 ]
  ret i32 %.011.i
}